target datalayout = "e-m:e-p270:32:32-p271:32:32-p272:64:64-i64:64-i128:128-f80:128-n8:16:32:64-S128"
target triple = "x86_64-pc-linux-gnu"

%struct.Vec_Int_t_ = type { i32, i32, ptr }
%struct.Vec_Wec_t_ = type { i32, i32, ptr }

; Function Attrs: nounwind uwtable
define internal i32 @Abc_LitNot(i32 noundef %0) #0 {
  %2 = alloca i32, align 4
  store i32 %0, ptr %2, align 4
  %3 = load i32, ptr %2, align 4
  %4 = xor i32 %3, 1
  ret i32 %4
}

; Function Attrs: nounwind uwtable
define internal ptr @Vec_WecEntry(ptr noundef %0, i32 noundef %1) #0 {
  %3 = alloca ptr, align 8
  %4 = alloca i32, align 4
  store ptr %0, ptr %3, align 8
  store i32 %1, ptr %4, align 4
  %5 = load ptr, ptr %3, align 8
  %6 = getelementptr inbounds %struct.Vec_Wec_t_, ptr %5, i32 0, i32 2
  %7 = load ptr, ptr %6, align 8
  %8 = load i32, ptr %4, align 4
  %9 = sext i32 %8 to i64
  %10 = getelementptr inbounds %struct.Vec_Int_t_, ptr %7, i64 %9
  ret ptr %10
}

; Function Attrs: nounwind uwtable
define internal i32 @Vec_WecSize(ptr noundef %0) #0 {
  %2 = alloca ptr, align 8
  store ptr %0, ptr %2, align 8
  %3 = load ptr, ptr %2, align 8
  %4 = getelementptr inbounds %struct.Vec_Wec_t_, ptr %3, i32 0, i32 1
  %5 = load i32, ptr %4, align 4
  ret i32 %5
}

; Function Attrs: nounwind uwtable
define i32 @Gia_ManDupUifConstr(ptr noundef %0, ptr noundef %1, ptr noundef %2, i32 noundef %3) #0 {
  %5 = alloca ptr, align 8
  %6 = alloca ptr, align 8
  %7 = alloca ptr, align 8
  %8 = alloca i32, align 4
  %9 = alloca i32, align 4
  %10 = alloca i32, align 4
  %11 = alloca i32, align 4
  %12 = alloca i32, align 4
  %13 = alloca i32, align 4
  %14 = alloca i32, align 4
  %15 = alloca i32, align 4
  store ptr %0, ptr %5, align 8
  store ptr %1, ptr %6, align 8
  store ptr %2, ptr %7, align 8
  store i32 %3, ptr %8, align 4
  store i32 1, ptr %12, align 4
  store i32 0, ptr %9, align 4
  br label %16

16:                                               ; preds = %106, %4
  %17 = load i32, ptr %9, align 4
  %18 = load i32, ptr %8, align 4
  %19 = icmp slt i32 %17, %18
  br i1 %19, label %20, label %109

20:                                               ; preds = %16
  store i32 0, ptr %10, align 4
  br label %21

21:                                               ; preds = %102, %20
  %22 = load i32, ptr %10, align 4
  %23 = load ptr, ptr %7, align 8
  %24 = load i32, ptr %9, align 4
  %25 = mul nsw i32 2, %24
  %26 = add nsw i32 %25, 0
  %27 = sext i32 %26 to i64
  %28 = getelementptr inbounds ptr, ptr %23, i64 %27
  %29 = load ptr, ptr %28, align 8
  %30 = call i32 @Vec_WecSize(ptr noundef %29)
  %31 = icmp slt i32 %22, %30
  br i1 %31, label %32, label %105

32:                                               ; preds = %21
  %33 = load i32, ptr %10, align 4
  %34 = add nsw i32 %33, 1
  store i32 %34, ptr %11, align 4
  br label %35

35:                                               ; preds = %98, %32
  %36 = load i32, ptr %11, align 4
  %37 = load ptr, ptr %7, align 8
  %38 = load i32, ptr %9, align 4
  %39 = mul nsw i32 2, %38
  %40 = add nsw i32 %39, 0
  %41 = sext i32 %40 to i64
  %42 = getelementptr inbounds ptr, ptr %37, i64 %41
  %43 = load ptr, ptr %42, align 8
  %44 = call i32 @Vec_WecSize(ptr noundef %43)
  %45 = icmp slt i32 %36, %44
  br i1 %45, label %46, label %101

46:                                               ; preds = %35
  %47 = load ptr, ptr %5, align 8
  %48 = load ptr, ptr %6, align 8
  %49 = load ptr, ptr %7, align 8
  %50 = load i32, ptr %9, align 4
  %51 = mul nsw i32 2, %50
  %52 = add nsw i32 %51, 0
  %53 = sext i32 %52 to i64
  %54 = getelementptr inbounds ptr, ptr %49, i64 %53
  %55 = load ptr, ptr %54, align 8
  %56 = load i32, ptr %10, align 4
  %57 = call ptr @Vec_WecEntry(ptr noundef %55, i32 noundef %56)
  %58 = load ptr, ptr %7, align 8
  %59 = load i32, ptr %9, align 4
  %60 = mul nsw i32 2, %59
  %61 = add nsw i32 %60, 0
  %62 = sext i32 %61 to i64
  %63 = getelementptr inbounds ptr, ptr %58, i64 %62
  %64 = load ptr, ptr %63, align 8
  %65 = load i32, ptr %11, align 4
  %66 = call ptr @Vec_WecEntry(ptr noundef %64, i32 noundef %65)
  %67 = call i32 @Gia_ManDupUifConstrOne(ptr noundef %47, ptr noundef %48, ptr noundef %57, ptr noundef %66)
  store i32 %67, ptr %13, align 4
  %68 = load ptr, ptr %5, align 8
  %69 = load ptr, ptr %6, align 8
  %70 = load ptr, ptr %7, align 8
  %71 = load i32, ptr %9, align 4
  %72 = mul nsw i32 2, %71
  %73 = add nsw i32 %72, 1
  %74 = sext i32 %73 to i64
  %75 = getelementptr inbounds ptr, ptr %70, i64 %74
  %76 = load ptr, ptr %75, align 8
  %77 = load i32, ptr %10, align 4
  %78 = call ptr @Vec_WecEntry(ptr noundef %76, i32 noundef %77)
  %79 = load ptr, ptr %7, align 8
  %80 = load i32, ptr %9, align 4
  %81 = mul nsw i32 2, %80
  %82 = add nsw i32 %81, 1
  %83 = sext i32 %82 to i64
  %84 = getelementptr inbounds ptr, ptr %79, i64 %83
  %85 = load ptr, ptr %84, align 8
  %86 = load i32, ptr %11, align 4
  %87 = call ptr @Vec_WecEntry(ptr noundef %85, i32 noundef %86)
  %88 = call i32 @Gia_ManDupUifConstrOne(ptr noundef %68, ptr noundef %69, ptr noundef %78, ptr noundef %87)
  store i32 %88, ptr %14, align 4
  %89 = load ptr, ptr %5, align 8
  %90 = load i32, ptr %13, align 4
  %91 = call i32 @Abc_LitNot(i32 noundef %90)
  %92 = load i32, ptr %14, align 4
  %93 = call i32 @Gia_ManHashOr(ptr noundef %89, i32 noundef %91, i32 noundef %92)
  store i32 %93, ptr %15, align 4
  %94 = load ptr, ptr %5, align 8
  %95 = load i32, ptr %12, align 4
  %96 = load i32, ptr %15, align 4
  %97 = call i32 @Gia_ManHashAnd(ptr noundef %94, i32 noundef %95, i32 noundef %96)
  store i32 %97, ptr %12, align 4
  br label %98

98:                                               ; preds = %46
  %99 = load i32, ptr %11, align 4
  %100 = add nsw i32 %99, 1
  store i32 %100, ptr %11, align 4
  br label %35, !llvm.loop !459

101:                                              ; preds = %35
  br label %102

102:                                              ; preds = %101
  %103 = load i32, ptr %10, align 4
  %104 = add nsw i32 %103, 1
  store i32 %104, ptr %10, align 4
  br label %21, !llvm.loop !460

105:                                              ; preds = %21
  br label %106

106:                                              ; preds = %105
  %107 = load i32, ptr %9, align 4
  %108 = add nsw i32 %107, 1
  store i32 %108, ptr %9, align 4
  br label %16, !llvm.loop !461

109:                                              ; preds = %16
  %110 = load i32, ptr %12, align 4
  ret i32 %110
}