; Function Attrs: nounwind uwtable
define i32 @Gia_ManDupUifConstr(ptr noundef %0, ptr noundef readonly captures(none) %1, ptr noundef readonly captures(none) %2, i32 noundef %3) local_unnamed_addr #1 {
  %5 = icmp sgt i32 %3, 0
  br i1 %5, label %.preheader.preheader, label %._crit_edge52

.preheader.preheader:                             ; preds = %4
  %wide.trip.count = zext nneg i32 %3 to i64
  br label %.preheader

.preheader:                                       ; preds = %.preheader.preheader, %._crit_edge
  %indvars.iv60 = phi i64 [ 0, %.preheader.preheader ], [ %indvars.iv.next61, %._crit_edge ]
  %.03650 = phi i32 [ 1, %.preheader.preheader ], [ %.1.lcssa, %._crit_edge ]
  %6 = shl nuw nsw i64 %indvars.iv60, 1
  %7 = getelementptr inbounds nuw ptr, ptr %2, i64 %6
  %8 = load ptr, ptr %7, align 8
  %9 = getelementptr i8, ptr %8, i64 4
  %.val4145 = load i32, ptr %9, align 4
  %10 = icmp sgt i32 %.val4145, 0
  br i1 %10, label %.lr.ph48, label %._crit_edge

.lr.ph48:                                         ; preds = %.preheader
  %11 = or disjoint i64 %6, 1
  %12 = getelementptr inbounds nuw ptr, ptr %2, i64 %11
  br label %15

.loopexit.loopexit:                               ; preds = %.lr.ph
  %.pre = sext i32 %.val40 to i64
  br label %.loopexit

.loopexit:                                        ; preds = %15, %.loopexit.loopexit
  %.pre-phi = phi i64 [ %.pre, %.loopexit.loopexit ], [ %17, %15 ]
  %.val41.pre66 = phi i32 [ %.val40, %.loopexit.loopexit ], [ %.val41.pre, %15 ]
  %13 = phi ptr [ %32, %.loopexit.loopexit ], [ %16, %15 ]
  %.2.lcssa = phi i32 [ %31, %.loopexit.loopexit ], [ %.146, %15 ]
  %14 = icmp slt i64 %indvars.iv.next58, %.pre-phi
  %indvars.iv.next = add nuw nsw i64 %indvars.iv, 1
  br i1 %14, label %15, label %._crit_edge, !llvm.loop !459

15:                                               ; preds = %.lr.ph48, %.loopexit
  %.val41.pre = phi i32 [ %.val4145, %.lr.ph48 ], [ %.val41.pre66, %.loopexit ]
  %16 = phi ptr [ %8, %.lr.ph48 ], [ %13, %.loopexit ]
  %indvars.iv57 = phi i64 [ 0, %.lr.ph48 ], [ %indvars.iv.next58, %.loopexit ]
  %indvars.iv = phi i64 [ 1, %.lr.ph48 ], [ %indvars.iv.next, %.loopexit ]
  %.146 = phi i32 [ %.03650, %.lr.ph48 ], [ %.2.lcssa, %.loopexit ]
  %indvars.iv.next58 = add nuw nsw i64 %indvars.iv57, 1
  %17 = sext i32 %.val41.pre to i64
  %18 = icmp slt i64 %indvars.iv.next58, %17
  br i1 %18, label %.lr.ph, label %.loopexit

.lr.ph:                                           ; preds = %15, %.lr.ph
  %indvars.iv54 = phi i64 [ %indvars.iv.next55, %.lr.ph ], [ %indvars.iv, %15 ]
  %19 = phi ptr [ %32, %.lr.ph ], [ %16, %15 ]
  %.243 = phi i32 [ %31, %.lr.ph ], [ %.146, %15 ]
  %20 = getelementptr i8, ptr %19, i64 8
  %.val39 = load ptr, ptr %20, align 8
  %21 = getelementptr inbounds nuw %struct.Vec_Int_t_, ptr %.val39, i64 %indvars.iv57
  %22 = getelementptr inbounds nuw %struct.Vec_Int_t_, ptr %.val39, i64 %indvars.iv54
  %23 = tail call i32 @Gia_ManDupUifConstrOne(ptr noundef %0, ptr noundef %1, ptr noundef %21, ptr noundef nonnull %22)
  %24 = load ptr, ptr %12, align 8
  %25 = getelementptr i8, ptr %24, i64 8
  %.val37 = load ptr, ptr %25, align 8
  %26 = getelementptr inbounds nuw %struct.Vec_Int_t_, ptr %.val37, i64 %indvars.iv57
  %27 = getelementptr inbounds nuw %struct.Vec_Int_t_, ptr %.val37, i64 %indvars.iv54
  %28 = tail call i32 @Gia_ManDupUifConstrOne(ptr noundef %0, ptr noundef %1, ptr noundef %26, ptr noundef nonnull %27)
  %29 = xor i32 %23, 1
  %30 = tail call i32 @Gia_ManHashOr(ptr noundef %0, i32 noundef %29, i32 noundef %28) #29
  %31 = tail call i32 @Gia_ManHashAnd(ptr noundef %0, i32 noundef %.243, i32 noundef %30) #29
  %indvars.iv.next55 = add nuw nsw i64 %indvars.iv54, 1
  %32 = load ptr, ptr %7, align 8
  %33 = getelementptr i8, ptr %32, i64 4
  %.val40 = load i32, ptr %33, align 4
  %34 = trunc nuw i64 %indvars.iv.next55 to i32
  %35 = icmp sgt i32 %.val40, %34
  br i1 %35, label %.lr.ph, label %.loopexit.loopexit, !llvm.loop !460

._crit_edge:                                      ; preds = %.loopexit, %.preheader
  %.1.lcssa = phi i32 [ %.03650, %.preheader ], [ %.2.lcssa, %.loopexit ]
  %indvars.iv.next61 = add nuw nsw i64 %indvars.iv60, 1
  %exitcond.not = icmp eq i64 %indvars.iv.next61, %wide.trip.count
  br i1 %exitcond.not, label %._crit_edge52, label %.preheader, !llvm.loop !461

._crit_edge52:                                    ; preds = %._crit_edge, %4
  %.036.lcssa = phi i32 [ 1, %4 ], [ %.1.lcssa, %._crit_edge ]
  ret i32 %.036.lcssa
}